target datalayout = "e-m:e-p270:32:32-p271:32:32-p272:64:64-i64:64-i128:128-f80:128-n8:16:32:64-S128"
target triple = "x86_64-pc-linux-gnu"

%struct.Color = type { i8, i8, i8, i8 }

; Function Attrs: nounwind uwtable
define void @ImageDrawLine(ptr noundef %0, i32 noundef %1, i32 noundef %2, i32 noundef %3, i32 noundef %4, i32 %5) #0 {
  %7 = alloca %struct.Color, align 1
  %8 = alloca ptr, align 8
  %9 = alloca i32, align 4
  %10 = alloca i32, align 4
  %11 = alloca i32, align 4
  %12 = alloca i32, align 4
  %13 = alloca i32, align 4
  %14 = alloca i32, align 4
  %15 = alloca i8, align 1
  %16 = alloca i32, align 4
  %17 = alloca i32, align 4
  %18 = alloca i32, align 4
  %19 = alloca i32, align 4
  %20 = alloca i32, align 4
  %21 = alloca i32, align 4
  %22 = alloca i32, align 4
  %23 = alloca i32, align 4
  store i32 %5, ptr %7, align 1
  store ptr %0, ptr %8, align 8
  store i32 %1, ptr %9, align 4
  store i32 %2, ptr %10, align 4
  store i32 %3, ptr %11, align 4
  store i32 %4, ptr %12, align 4
  call void @llvm.lifetime.start.p0(i64 4, ptr %13) #19
  %24 = load i32, ptr %12, align 4
  %25 = load i32, ptr %10, align 4
  %26 = sub nsw i32 %24, %25
  store i32 %26, ptr %13, align 4
  call void @llvm.lifetime.start.p0(i64 4, ptr %14) #19
  %27 = load i32, ptr %11, align 4
  %28 = load i32, ptr %9, align 4
  %29 = sub nsw i32 %27, %28
  store i32 %29, ptr %14, align 4
  call void @llvm.lifetime.start.p0(i64 1, ptr %15) #19
  store i8 0, ptr %15, align 1
  %30 = load i32, ptr %13, align 4
  %31 = call i32 @llvm.abs.i32(i32 %30, i1 true)
  %32 = load i32, ptr %14, align 4
  %33 = call i32 @llvm.abs.i32(i32 %32, i1 true)
  %34 = icmp sgt i32 %31, %33
  br i1 %34, label %35, label %39

35:                                               ; preds = %6
  call void @llvm.lifetime.start.p0(i64 4, ptr %16) #19
  %36 = load i32, ptr %13, align 4
  store i32 %36, ptr %16, align 4
  %37 = load i32, ptr %14, align 4
  store i32 %37, ptr %13, align 4
  %38 = load i32, ptr %16, align 4
  store i32 %38, ptr %14, align 4
  store i8 1, ptr %15, align 1
  call void @llvm.lifetime.end.p0(i64 4, ptr %16) #19
  br label %39

39:                                               ; preds = %35, %6
  call void @llvm.lifetime.start.p0(i64 4, ptr %17) #19
  %40 = load i32, ptr %14, align 4
  store i32 %40, ptr %17, align 4
  call void @llvm.lifetime.start.p0(i64 4, ptr %18) #19
  store i32 1, ptr %18, align 4
  %41 = load i32, ptr %14, align 4
  %42 = icmp slt i32 %41, 0
  br i1 %42, label %43, label %46

43:                                               ; preds = %39
  %44 = load i32, ptr %14, align 4
  %45 = sub nsw i32 0, %44
  store i32 %45, ptr %14, align 4
  store i32 -1, ptr %18, align 4
  br label %46

46:                                               ; preds = %43, %39
  call void @llvm.lifetime.start.p0(i64 4, ptr %19) #19
  %47 = load i32, ptr %14, align 4
  %48 = icmp eq i32 %47, 0
  br i1 %48, label %49, label %50

49:                                               ; preds = %46
  br label %55

50:                                               ; preds = %46
  %51 = load i32, ptr %13, align 4
  %52 = shl i32 %51, 16
  %53 = load i32, ptr %14, align 4
  %54 = sdiv i32 %52, %53
  br label %55

55:                                               ; preds = %50, %49
  %56 = phi i32 [ 0, %49 ], [ %54, %50 ]
  store i32 %56, ptr %19, align 4
  %57 = load i8, ptr %15, align 1, !range !3, !noundef !4
  %58 = trunc i8 %57 to i1
  br i1 %58, label %59, label %83

59:                                               ; preds = %55
  call void @llvm.lifetime.start.p0(i64 4, ptr %20) #19
  store i32 0, ptr %20, align 4
  call void @llvm.lifetime.start.p0(i64 4, ptr %21) #19
  store i32 0, ptr %21, align 4
  br label %60

60:                                               ; preds = %75, %59
  %61 = load i32, ptr %20, align 4
  %62 = load i32, ptr %17, align 4
  %63 = icmp ne i32 %61, %62
  br i1 %63, label %65, label %64

64:                                               ; preds = %60
  call void @llvm.lifetime.end.p0(i64 4, ptr %21) #19
  call void @llvm.lifetime.end.p0(i64 4, ptr %20) #19
  br label %82

65:                                               ; preds = %60
  %66 = load ptr, ptr %8, align 8
  %67 = load i32, ptr %9, align 4
  %68 = load i32, ptr %21, align 4
  %69 = ashr i32 %68, 16
  %70 = add nsw i32 %67, %69
  %71 = load i32, ptr %10, align 4
  %72 = load i32, ptr %20, align 4
  %73 = add nsw i32 %71, %72
  %74 = load i32, ptr %7, align 1
  call void @ImageDrawPixel(ptr noundef %66, i32 noundef %70, i32 noundef %73, i32 %74)
  br label %75

75:                                               ; preds = %65
  %76 = load i32, ptr %18, align 4
  %77 = load i32, ptr %20, align 4
  %78 = add nsw i32 %77, %76
  store i32 %78, ptr %20, align 4
  %79 = load i32, ptr %19, align 4
  %80 = load i32, ptr %21, align 4
  %81 = add nsw i32 %80, %79
  store i32 %81, ptr %21, align 4
  br label %60

82:                                               ; preds = %64
  br label %107

83:                                               ; preds = %55
  call void @llvm.lifetime.start.p0(i64 4, ptr %22) #19
  store i32 0, ptr %22, align 4
  call void @llvm.lifetime.start.p0(i64 4, ptr %23) #19
  store i32 0, ptr %23, align 4
  br label %84

84:                                               ; preds = %99, %83
  %85 = load i32, ptr %22, align 4
  %86 = load i32, ptr %17, align 4
  %87 = icmp ne i32 %85, %86
  br i1 %87, label %89, label %88

88:                                               ; preds = %84
  call void @llvm.lifetime.end.p0(i64 4, ptr %23) #19
  call void @llvm.lifetime.end.p0(i64 4, ptr %22) #19
  br label %106

89:                                               ; preds = %84
  %90 = load ptr, ptr %8, align 8
  %91 = load i32, ptr %9, align 4
  %92 = load i32, ptr %22, align 4
  %93 = add nsw i32 %91, %92
  %94 = load i32, ptr %10, align 4
  %95 = load i32, ptr %23, align 4
  %96 = ashr i32 %95, 16
  %97 = add nsw i32 %94, %96
  %98 = load i32, ptr %7, align 1
  call void @ImageDrawPixel(ptr noundef %90, i32 noundef %93, i32 noundef %97, i32 %98)
  br label %99

99:                                               ; preds = %89
  %100 = load i32, ptr %18, align 4
  %101 = load i32, ptr %22, align 4
  %102 = add nsw i32 %101, %100
  store i32 %102, ptr %22, align 4
  %103 = load i32, ptr %19, align 4
  %104 = load i32, ptr %23, align 4
  %105 = add nsw i32 %104, %103
  store i32 %105, ptr %23, align 4
  br label %84

106:                                              ; preds = %88
  br label %107

107:                                              ; preds = %106, %82
  call void @llvm.lifetime.end.p0(i64 4, ptr %19) #19
  call void @llvm.lifetime.end.p0(i64 4, ptr %18) #19
  call void @llvm.lifetime.end.p0(i64 4, ptr %17) #19
  call void @llvm.lifetime.end.p0(i64 1, ptr %15) #19
  call void @llvm.lifetime.end.p0(i64 4, ptr %14) #19
  call void @llvm.lifetime.end.p0(i64 4, ptr %13) #19
  ret void
}