; Function Attrs: nofree norecurse nosync nounwind memory(write, argmem: readwrite, inaccessiblemem: none) uwtable
define void @ImageDrawLine(ptr noundef readonly captures(none) %0, i32 noundef %1, i32 noundef %2, i32 noundef %3, i32 noundef %4, i32 %5) local_unnamed_addr #36 {
  %7 = sub nsw i32 %4, %2
  %8 = sub nsw i32 %3, %1
  %9 = tail call i32 @llvm.abs.i32(i32 %7, i1 true)
  %10 = tail call i32 @llvm.abs.i32(i32 %8, i1 true)
  %11 = icmp samesign ugt i32 %9, %10
  %spec.select = select i1 %11, i32 %7, i32 %8
  %.inv = icmp sgt i32 %spec.select, -1
  %.042 = select i1 %.inv, i32 1, i32 -1
  %12 = icmp eq i32 %spec.select, 0
  br i1 %12, label %.loopexit, label %.thread

.thread:                                          ; preds = %6
  %.1 = tail call i32 @llvm.abs.i32(i32 %spec.select, i1 true)
  %spec.select46 = select i1 %11, i32 %8, i32 %7
  %13 = shl i32 %spec.select46, 16
  %14 = sdiv i32 %13, %.1
  br i1 %11, label %.lr.ph55, label %.lr.ph

.lr.ph55:                                         ; preds = %.thread, %.lr.ph55
  %.03954 = phi i32 [ %19, %.lr.ph55 ], [ 0, %.thread ]
  %.04053 = phi i32 [ %18, %.lr.ph55 ], [ 0, %.thread ]
  %15 = ashr i32 %.03954, 16
  %16 = add nsw i32 %15, %1
  %17 = add nsw i32 %.04053, %2
  tail call void @ImageDrawPixel(ptr noundef %0, i32 noundef %16, i32 noundef %17, i32 %5)
  %18 = add nsw i32 %.04053, %.042
  %19 = add nsw i32 %.03954, %14
  %.not45 = icmp eq i32 %18, %spec.select
  br i1 %.not45, label %.loopexit, label %.lr.ph55

.lr.ph:                                           ; preds = %.thread, %.lr.ph
  %.051 = phi i32 [ %24, %.lr.ph ], [ 0, %.thread ]
  %.03850 = phi i32 [ %23, %.lr.ph ], [ 0, %.thread ]
  %20 = add nsw i32 %.03850, %1
  %21 = ashr i32 %.051, 16
  %22 = add nsw i32 %21, %2
  tail call void @ImageDrawPixel(ptr noundef %0, i32 noundef %20, i32 noundef %22, i32 %5)
  %23 = add nsw i32 %.03850, %.042
  %24 = add nsw i32 %.051, %14
  %.not = icmp eq i32 %23, %spec.select
  br i1 %.not, label %.loopexit, label %.lr.ph

.loopexit:                                        ; preds = %.lr.ph, %.lr.ph55, %6
  ret void
}